target datalayout = "e-m:e-p270:32:32-p271:32:32-p272:64:64-i64:64-i128:128-f80:128-n8:16:32:64-S128"
target triple = "x86_64-unknown-linux-gnu"

; Function Attrs: mustprogress nounwind uwtable
define hidden void @_ZN9SampleICC5Swap8ERhS0_(ptr noundef nonnull align 1 dereferenceable(1) %a, ptr noundef nonnull align 1 dereferenceable(1) %b) #4 {
entry:
  %a.addr = alloca ptr, align 8
  %b.addr = alloca ptr, align 8
  %tmp = alloca i8, align 1
  store ptr %a, ptr %a.addr, align 8
  store ptr %b, ptr %b.addr, align 8
  %0 = load ptr, ptr %a.addr, align 8
  %1 = load i8, ptr %0, align 1
  store i8 %1, ptr %tmp, align 1
  %2 = load ptr, ptr %b.addr, align 8
  %3 = load i8, ptr %2, align 1
  %4 = load ptr, ptr %a.addr, align 8
  store i8 %3, ptr %4, align 1
  %5 = load i8, ptr %tmp, align 1
  %6 = load ptr, ptr %b.addr, align 8
  store i8 %5, ptr %6, align 1
  ret void
}

; Function Attrs: mustprogress nounwind uwtable
define hidden void @_ZN9SampleICC11Swap32ArrayEPvi(ptr noundef %pVoid, i32 noundef %num) #4 {
entry:
  %pVoid.addr = alloca ptr, align 8
  %num.addr = alloca i32, align 4
  %ptr = alloca ptr, align 8
  store ptr %pVoid, ptr %pVoid.addr, align 8
  store i32 %num, ptr %num.addr, align 4
  %0 = load ptr, ptr %pVoid.addr, align 8
  store ptr %0, ptr %ptr, align 8
  br label %while.cond

while.cond:                                       ; preds = %while.body, %entry
  %1 = load i32, ptr %num.addr, align 4
  %cmp = icmp sgt i32 %1, 0
  br i1 %cmp, label %while.body, label %while.end

while.body:                                       ; preds = %while.cond
  %2 = load ptr, ptr %ptr, align 8
  %arrayidx = getelementptr inbounds i8, ptr %2, i64 0
  %3 = load ptr, ptr %ptr, align 8
  %arrayidx1 = getelementptr inbounds i8, ptr %3, i64 3
  call void @_ZN9SampleICC5Swap8ERhS0_(ptr noundef nonnull align 1 dereferenceable(1) %arrayidx, ptr noundef nonnull align 1 dereferenceable(1) %arrayidx1)
  %4 = load ptr, ptr %ptr, align 8
  %arrayidx2 = getelementptr inbounds i8, ptr %4, i64 1
  %5 = load ptr, ptr %ptr, align 8
  %arrayidx3 = getelementptr inbounds i8, ptr %5, i64 2
  call void @_ZN9SampleICC5Swap8ERhS0_(ptr noundef nonnull align 1 dereferenceable(1) %arrayidx2, ptr noundef nonnull align 1 dereferenceable(1) %arrayidx3)
  %6 = load ptr, ptr %ptr, align 8
  %add.ptr = getelementptr inbounds i8, ptr %6, i64 4
  store ptr %add.ptr, ptr %ptr, align 8
  %7 = load i32, ptr %num.addr, align 4
  %dec = add nsw i32 %7, -1
  store i32 %dec, ptr %num.addr, align 4
  br label %while.cond, !llvm.loop !6

while.end:                                        ; preds = %while.cond
  ret void
}