; Function Attrs: mustprogress nofree norecurse nosync nounwind memory(readwrite, inaccessiblemem: none) uwtable
define hidden void @_ZN9SampleICC11Swap32ArrayEPvi(ptr nocapture noundef %pVoid, i32 noundef %num) local_unnamed_addr #4 {
entry:
  %cmp6 = icmp sgt i32 %num, 0
  br i1 %cmp6, label %while.body, label %while.end

while.body:                                       ; preds = %entry, %while.body
  %ptr.08 = phi ptr [ %add.ptr, %while.body ], [ %pVoid, %entry ]
  %num.addr.07 = phi i32 [ %dec, %while.body ], [ %num, %entry ]
  %0 = load <4 x i8>, ptr %ptr.08, align 1
  %1 = shufflevector <4 x i8> %0, <4 x i8> poison, <4 x i32> <i32 3, i32 2, i32 1, i32 0>
  store <4 x i8> %1, ptr %ptr.08, align 1
  %add.ptr = getelementptr inbounds i8, ptr %ptr.08, i64 4
  %dec = add nsw i32 %num.addr.07, -1
  %cmp = icmp ugt i32 %num.addr.07, 1
  br i1 %cmp, label %while.body, label %while.end, !llvm.loop !6

while.end:                                        ; preds = %while.body, %entry
  ret void
}